; Function Attrs: mustprogress uwtable
define dso_local noundef zeroext i1 @_ZNK5vcpkg11RegistrySet17has_modificationsEv(ptr nocapture noundef nonnull readonly align 8 dereferenceable(32) %0) local_unnamed_addr #2 align 2 {
  %2 = getelementptr inbounds i8, ptr %0, i64 8
  %3 = load ptr, ptr %2, align 8
  %4 = getelementptr inbounds i8, ptr %0, i64 16
  %5 = load ptr, ptr %4, align 8
  %6 = icmp eq ptr %3, %5
  br i1 %6, label %7, label %_ZNK5vcpkg11RegistrySet27is_default_builtin_registryEv.exit

7:                                                ; preds = %1
  %8 = load ptr, ptr %0, align 8
  %.not.i = icmp eq ptr %8, null
  br i1 %.not.i, label %_ZNK5vcpkg11RegistrySet27is_default_builtin_registryEv.exit, label %9

9:                                                ; preds = %7
  %10 = load ptr, ptr %8, align 8
  %11 = load ptr, ptr %10, align 8
  %12 = tail call { ptr, i64 } %11(ptr noundef nonnull align 8 dereferenceable(8) %8)
  %13 = extractvalue { ptr, i64 } %12, 0
  %14 = extractvalue { ptr, i64 } %12, 1
  %15 = tail call noundef zeroext i1 @_ZN5vcpkgeqENS_10StringViewES0_(ptr %13, i64 %14, ptr nonnull @.str.4, i64 13) #26
  %16 = xor i1 %15, true
  br label %_ZNK5vcpkg11RegistrySet27is_default_builtin_registryEv.exit

_ZNK5vcpkg11RegistrySet27is_default_builtin_registryEv.exit: ; preds = %9, %7, %1
  %17 = phi i1 [ true, %1 ], [ true, %7 ], [ %16, %9 ]
  ret i1 %17
}